target datalayout = "e-m:e-p270:32:32-p271:32:32-p272:64:64-i64:64-i128:128-f80:128-n8:16:32:64-S128"
target triple = "x86_64-pc-linux-gnu"

%struct._lv_indev_t = type { i32, ptr, i32, i32, i32, i8, i32, i32, ptr, ptr, ptr, ptr, i8, i8, i8, i8, i16, i16, i32, %struct.anon, %struct.anon.0, ptr, ptr, ptr, %struct.lv_event_list_t, ptr, i32, ptr }
%struct.anon = type { %struct.lv_point_t, %struct.lv_point_t, %struct.lv_point_t, %struct.lv_point_t, %struct.lv_point_t, %struct.lv_point_t, %struct.lv_point_t, ptr, ptr, ptr, ptr, ptr, %struct.lv_area_t, %struct.lv_point_t, i32, i8, %struct.lv_point_t, i32, i16 }
%struct.lv_area_t = type { i32, i32, i32, i32 }
%struct.lv_point_t = type { i32, i32 }
%struct.anon.0 = type { i32, i32 }
%struct.lv_event_list_t = type { %struct._lv_array_t, i8 }
%struct._lv_array_t = type { ptr, i32, i32, i32, i8 }
%struct._lv_event_t = type { ptr, ptr, i32, ptr, ptr, ptr, i8 }

; Function Attrs: inlinehint nounwind uwtable
define internal void @lv_memzero(ptr noundef %0, i64 noundef %1) #3 {
  %3 = alloca ptr, align 8
  %4 = alloca i64, align 8
  store ptr %0, ptr %3, align 8, !tbaa !35
  store i64 %1, ptr %4, align 8, !tbaa !36
  %5 = load ptr, ptr %3, align 8, !tbaa !35
  %6 = load i64, ptr %4, align 8, !tbaa !36
  call void @lv_memset(ptr noundef %5, i8 noundef zeroext 0, i64 noundef %6)
  ret void
}

; Function Attrs: nounwind uwtable
define i32 @lv_indev_send_event(ptr noundef %0, i32 noundef %1, ptr noundef %2) #0 {
  %4 = alloca i32, align 4
  %5 = alloca ptr, align 8
  %6 = alloca i32, align 4
  %7 = alloca ptr, align 8
  %8 = alloca %struct._lv_event_t, align 8
  %9 = alloca i32, align 4
  %10 = alloca i32, align 4
  store ptr %0, ptr %5, align 8, !tbaa !8
  store i32 %1, ptr %6, align 4, !tbaa !41
  store ptr %2, ptr %7, align 8, !tbaa !35
  call void @llvm.lifetime.start.p0(i64 56, ptr %8) #6
  call void @lv_memzero(ptr noundef %8, i64 noundef 56)
  %11 = load i32, ptr %6, align 4, !tbaa !41
  %12 = getelementptr inbounds nuw %struct._lv_event_t, ptr %8, i32 0, i32 2
  store i32 %11, ptr %12, align 8, !tbaa !42
  %13 = load ptr, ptr %5, align 8, !tbaa !8
  %14 = getelementptr inbounds nuw %struct._lv_event_t, ptr %8, i32 0, i32 0
  store ptr %13, ptr %14, align 8, !tbaa !45
  %15 = load ptr, ptr %5, align 8, !tbaa !8
  %16 = getelementptr inbounds nuw %struct._lv_event_t, ptr %8, i32 0, i32 1
  store ptr %15, ptr %16, align 8, !tbaa !46
  %17 = load ptr, ptr %7, align 8, !tbaa !35
  %18 = getelementptr inbounds nuw %struct._lv_event_t, ptr %8, i32 0, i32 4
  store ptr %17, ptr %18, align 8, !tbaa !47
  call void @llvm.lifetime.start.p0(i64 4, ptr %9) #6
  %19 = load ptr, ptr %5, align 8, !tbaa !8
  %20 = getelementptr inbounds nuw %struct._lv_indev_t, ptr %19, i32 0, i32 24
  %21 = call i32 @lv_event_send(ptr noundef %20, ptr noundef %8, i1 noundef zeroext true)
  store i32 %21, ptr %9, align 4, !tbaa !41
  %22 = load i32, ptr %9, align 4, !tbaa !41
  %23 = icmp ne i32 %22, 1
  br i1 %23, label %24, label %26

24:                                               ; preds = %3
  %25 = load i32, ptr %9, align 4, !tbaa !41
  store i32 %25, ptr %4, align 4
  store i32 1, ptr %10, align 4
  br label %36

26:                                               ; preds = %3
  %27 = load ptr, ptr %5, align 8, !tbaa !8
  %28 = getelementptr inbounds nuw %struct._lv_indev_t, ptr %27, i32 0, i32 24
  %29 = call i32 @lv_event_send(ptr noundef %28, ptr noundef %8, i1 noundef zeroext false)
  store i32 %29, ptr %9, align 4, !tbaa !41
  %30 = load i32, ptr %9, align 4, !tbaa !41
  %31 = icmp ne i32 %30, 1
  br i1 %31, label %32, label %34

32:                                               ; preds = %26
  %33 = load i32, ptr %9, align 4, !tbaa !41
  store i32 %33, ptr %4, align 4
  store i32 1, ptr %10, align 4
  br label %36

34:                                               ; preds = %26
  %35 = load i32, ptr %9, align 4, !tbaa !41
  store i32 %35, ptr %4, align 4
  store i32 1, ptr %10, align 4
  br label %36

36:                                               ; preds = %34, %32, %24
  call void @llvm.lifetime.end.p0(i64 4, ptr %9) #6
  call void @llvm.lifetime.end.p0(i64 56, ptr %8) #6
  %37 = load i32, ptr %4, align 4
  ret i32 %37
}